target datalayout = "e-m:e-p270:32:32-p271:32:32-p272:64:64-i64:64-i128:128-f80:128-n8:16:32:64-S128"
target triple = "x86_64-pc-linux-gnu"

%"class.Json::Value" = type { %"union.Json::Value::ValueHolder", %struct.anon, %"class.Json::Value::Comments", i64, i64 }
%"union.Json::Value::ValueHolder" = type { i64 }
%struct.anon = type { i16, [2 x i8] }
%"class.Json::Value::Comments" = type { %"class.std::unique_ptr" }
%"class.std::unique_ptr" = type { %"struct.std::__uniq_ptr_data" }
%"struct.std::__uniq_ptr_data" = type { %"class.std::__uniq_ptr_impl" }
%"class.std::__uniq_ptr_impl" = type { %"class.std::tuple" }
%"class.std::tuple" = type { %"struct.std::_Tuple_impl" }
%"struct.std::_Tuple_impl" = type { %"struct.std::_Head_base.10" }
%"struct.std::_Head_base.10" = type { ptr }

@.str.31 = private unnamed_addr constant [14 x i8] c"allowComments\00", align 1
@.str.32 = private unnamed_addr constant [20 x i8] c"allowTrailingCommas\00", align 1
@.str.33 = private unnamed_addr constant [11 x i8] c"strictRoot\00", align 1
@.str.34 = private unnamed_addr constant [29 x i8] c"allowDroppedNullPlaceholders\00", align 1
@.str.35 = private unnamed_addr constant [17 x i8] c"allowNumericKeys\00", align 1
@.str.36 = private unnamed_addr constant [18 x i8] c"allowSingleQuotes\00", align 1
@.str.37 = private unnamed_addr constant [11 x i8] c"stackLimit\00", align 1
@.str.38 = private unnamed_addr constant [12 x i8] c"failIfExtra\00", align 1
@.str.39 = private unnamed_addr constant [14 x i8] c"rejectDupKeys\00", align 1
@.str.40 = private unnamed_addr constant [19 x i8] c"allowSpecialFloats\00", align 1
@.str.41 = private unnamed_addr constant [8 x i8] c"skipBom\00", align 1

; Function Attrs: mustprogress uwtable
define dso_local void @_ZN4Json17CharReaderBuilder10strictModeEPNS_5ValueE(ptr noundef %0) #5 align 2 personality ptr @__gxx_personality_v0 {
  %2 = alloca ptr, align 8
  %3 = alloca %"class.Json::Value", align 8
  %4 = alloca ptr, align 8
  %5 = alloca i32, align 4
  %6 = alloca %"class.Json::Value", align 8
  %7 = alloca %"class.Json::Value", align 8
  %8 = alloca %"class.Json::Value", align 8
  %9 = alloca %"class.Json::Value", align 8
  %10 = alloca %"class.Json::Value", align 8
  %11 = alloca %"class.Json::Value", align 8
  %12 = alloca %"class.Json::Value", align 8
  %13 = alloca %"class.Json::Value", align 8
  %14 = alloca %"class.Json::Value", align 8
  %15 = alloca %"class.Json::Value", align 8
  store ptr %0, ptr %2, align 8
  call void @_ZN4Json5ValueC1Eb(ptr noundef nonnull align 8 dereferenceable(40) %3, i1 noundef zeroext false)
  %16 = load ptr, ptr %2, align 8
  %17 = invoke noundef nonnull align 8 dereferenceable(40) ptr @_ZN4Json5ValueixEPKc(ptr noundef nonnull align 8 dereferenceable(40) %16, ptr noundef @.str.31)
          to label %18 unwind label %60

18:                                               ; preds = %1
  %19 = call noundef nonnull align 8 dereferenceable(40) ptr @_ZN4Json5ValueaSEOS0_(ptr noundef nonnull align 8 dereferenceable(40) %17, ptr noundef nonnull align 8 dereferenceable(40) %3) #3
  call void @_ZN4Json5ValueD1Ev(ptr noundef nonnull align 8 dereferenceable(40) %3) #3
  call void @_ZN4Json5ValueC1Eb(ptr noundef nonnull align 8 dereferenceable(40) %6, i1 noundef zeroext false)
  %20 = load ptr, ptr %2, align 8
  %21 = invoke noundef nonnull align 8 dereferenceable(40) ptr @_ZN4Json5ValueixEPKc(ptr noundef nonnull align 8 dereferenceable(40) %20, ptr noundef @.str.32)
          to label %22 unwind label %64

22:                                               ; preds = %18
  %23 = call noundef nonnull align 8 dereferenceable(40) ptr @_ZN4Json5ValueaSEOS0_(ptr noundef nonnull align 8 dereferenceable(40) %21, ptr noundef nonnull align 8 dereferenceable(40) %6) #3
  call void @_ZN4Json5ValueD1Ev(ptr noundef nonnull align 8 dereferenceable(40) %6) #3
  call void @_ZN4Json5ValueC1Eb(ptr noundef nonnull align 8 dereferenceable(40) %7, i1 noundef zeroext true)
  %24 = load ptr, ptr %2, align 8
  %25 = invoke noundef nonnull align 8 dereferenceable(40) ptr @_ZN4Json5ValueixEPKc(ptr noundef nonnull align 8 dereferenceable(40) %24, ptr noundef @.str.33)
          to label %26 unwind label %68

26:                                               ; preds = %22
  %27 = call noundef nonnull align 8 dereferenceable(40) ptr @_ZN4Json5ValueaSEOS0_(ptr noundef nonnull align 8 dereferenceable(40) %25, ptr noundef nonnull align 8 dereferenceable(40) %7) #3
  call void @_ZN4Json5ValueD1Ev(ptr noundef nonnull align 8 dereferenceable(40) %7) #3
  call void @_ZN4Json5ValueC1Eb(ptr noundef nonnull align 8 dereferenceable(40) %8, i1 noundef zeroext false)
  %28 = load ptr, ptr %2, align 8
  %29 = invoke noundef nonnull align 8 dereferenceable(40) ptr @_ZN4Json5ValueixEPKc(ptr noundef nonnull align 8 dereferenceable(40) %28, ptr noundef @.str.34)
          to label %30 unwind label %72

30:                                               ; preds = %26
  %31 = call noundef nonnull align 8 dereferenceable(40) ptr @_ZN4Json5ValueaSEOS0_(ptr noundef nonnull align 8 dereferenceable(40) %29, ptr noundef nonnull align 8 dereferenceable(40) %8) #3
  call void @_ZN4Json5ValueD1Ev(ptr noundef nonnull align 8 dereferenceable(40) %8) #3
  call void @_ZN4Json5ValueC1Eb(ptr noundef nonnull align 8 dereferenceable(40) %9, i1 noundef zeroext false)
  %32 = load ptr, ptr %2, align 8
  %33 = invoke noundef nonnull align 8 dereferenceable(40) ptr @_ZN4Json5ValueixEPKc(ptr noundef nonnull align 8 dereferenceable(40) %32, ptr noundef @.str.35)
          to label %34 unwind label %76

34:                                               ; preds = %30
  %35 = call noundef nonnull align 8 dereferenceable(40) ptr @_ZN4Json5ValueaSEOS0_(ptr noundef nonnull align 8 dereferenceable(40) %33, ptr noundef nonnull align 8 dereferenceable(40) %9) #3
  call void @_ZN4Json5ValueD1Ev(ptr noundef nonnull align 8 dereferenceable(40) %9) #3
  call void @_ZN4Json5ValueC1Eb(ptr noundef nonnull align 8 dereferenceable(40) %10, i1 noundef zeroext false)
  %36 = load ptr, ptr %2, align 8
  %37 = invoke noundef nonnull align 8 dereferenceable(40) ptr @_ZN4Json5ValueixEPKc(ptr noundef nonnull align 8 dereferenceable(40) %36, ptr noundef @.str.36)
          to label %38 unwind label %80

38:                                               ; preds = %34
  %39 = call noundef nonnull align 8 dereferenceable(40) ptr @_ZN4Json5ValueaSEOS0_(ptr noundef nonnull align 8 dereferenceable(40) %37, ptr noundef nonnull align 8 dereferenceable(40) %10) #3
  call void @_ZN4Json5ValueD1Ev(ptr noundef nonnull align 8 dereferenceable(40) %10) #3
  call void @_ZN4Json5ValueC1Ei(ptr noundef nonnull align 8 dereferenceable(40) %11, i32 noundef 1000)
  %40 = load ptr, ptr %2, align 8
  %41 = invoke noundef nonnull align 8 dereferenceable(40) ptr @_ZN4Json5ValueixEPKc(ptr noundef nonnull align 8 dereferenceable(40) %40, ptr noundef @.str.37)
          to label %42 unwind label %84

42:                                               ; preds = %38
  %43 = call noundef nonnull align 8 dereferenceable(40) ptr @_ZN4Json5ValueaSEOS0_(ptr noundef nonnull align 8 dereferenceable(40) %41, ptr noundef nonnull align 8 dereferenceable(40) %11) #3
  call void @_ZN4Json5ValueD1Ev(ptr noundef nonnull align 8 dereferenceable(40) %11) #3
  call void @_ZN4Json5ValueC1Eb(ptr noundef nonnull align 8 dereferenceable(40) %12, i1 noundef zeroext true)
  %44 = load ptr, ptr %2, align 8
  %45 = invoke noundef nonnull align 8 dereferenceable(40) ptr @_ZN4Json5ValueixEPKc(ptr noundef nonnull align 8 dereferenceable(40) %44, ptr noundef @.str.38)
          to label %46 unwind label %88

46:                                               ; preds = %42
  %47 = call noundef nonnull align 8 dereferenceable(40) ptr @_ZN4Json5ValueaSEOS0_(ptr noundef nonnull align 8 dereferenceable(40) %45, ptr noundef nonnull align 8 dereferenceable(40) %12) #3
  call void @_ZN4Json5ValueD1Ev(ptr noundef nonnull align 8 dereferenceable(40) %12) #3
  call void @_ZN4Json5ValueC1Eb(ptr noundef nonnull align 8 dereferenceable(40) %13, i1 noundef zeroext true)
  %48 = load ptr, ptr %2, align 8
  %49 = invoke noundef nonnull align 8 dereferenceable(40) ptr @_ZN4Json5ValueixEPKc(ptr noundef nonnull align 8 dereferenceable(40) %48, ptr noundef @.str.39)
          to label %50 unwind label %92

50:                                               ; preds = %46
  %51 = call noundef nonnull align 8 dereferenceable(40) ptr @_ZN4Json5ValueaSEOS0_(ptr noundef nonnull align 8 dereferenceable(40) %49, ptr noundef nonnull align 8 dereferenceable(40) %13) #3
  call void @_ZN4Json5ValueD1Ev(ptr noundef nonnull align 8 dereferenceable(40) %13) #3
  call void @_ZN4Json5ValueC1Eb(ptr noundef nonnull align 8 dereferenceable(40) %14, i1 noundef zeroext false)
  %52 = load ptr, ptr %2, align 8
  %53 = invoke noundef nonnull align 8 dereferenceable(40) ptr @_ZN4Json5ValueixEPKc(ptr noundef nonnull align 8 dereferenceable(40) %52, ptr noundef @.str.40)
          to label %54 unwind label %96

54:                                               ; preds = %50
  %55 = call noundef nonnull align 8 dereferenceable(40) ptr @_ZN4Json5ValueaSEOS0_(ptr noundef nonnull align 8 dereferenceable(40) %53, ptr noundef nonnull align 8 dereferenceable(40) %14) #3
  call void @_ZN4Json5ValueD1Ev(ptr noundef nonnull align 8 dereferenceable(40) %14) #3
  call void @_ZN4Json5ValueC1Eb(ptr noundef nonnull align 8 dereferenceable(40) %15, i1 noundef zeroext true)
  %56 = load ptr, ptr %2, align 8
  %57 = invoke noundef nonnull align 8 dereferenceable(40) ptr @_ZN4Json5ValueixEPKc(ptr noundef nonnull align 8 dereferenceable(40) %56, ptr noundef @.str.41)
          to label %58 unwind label %100

58:                                               ; preds = %54
  %59 = call noundef nonnull align 8 dereferenceable(40) ptr @_ZN4Json5ValueaSEOS0_(ptr noundef nonnull align 8 dereferenceable(40) %57, ptr noundef nonnull align 8 dereferenceable(40) %15) #3
  call void @_ZN4Json5ValueD1Ev(ptr noundef nonnull align 8 dereferenceable(40) %15) #3
  ret void

60:                                               ; preds = %1
  %61 = landingpad { ptr, i32 }
          cleanup
  %62 = extractvalue { ptr, i32 } %61, 0
  store ptr %62, ptr %4, align 8
  %63 = extractvalue { ptr, i32 } %61, 1
  store i32 %63, ptr %5, align 4
  call void @_ZN4Json5ValueD1Ev(ptr noundef nonnull align 8 dereferenceable(40) %3) #3
  br label %104

64:                                               ; preds = %18
  %65 = landingpad { ptr, i32 }
          cleanup
  %66 = extractvalue { ptr, i32 } %65, 0
  store ptr %66, ptr %4, align 8
  %67 = extractvalue { ptr, i32 } %65, 1
  store i32 %67, ptr %5, align 4
  call void @_ZN4Json5ValueD1Ev(ptr noundef nonnull align 8 dereferenceable(40) %6) #3
  br label %104

68:                                               ; preds = %22
  %69 = landingpad { ptr, i32 }
          cleanup
  %70 = extractvalue { ptr, i32 } %69, 0
  store ptr %70, ptr %4, align 8
  %71 = extractvalue { ptr, i32 } %69, 1
  store i32 %71, ptr %5, align 4
  call void @_ZN4Json5ValueD1Ev(ptr noundef nonnull align 8 dereferenceable(40) %7) #3
  br label %104

72:                                               ; preds = %26
  %73 = landingpad { ptr, i32 }
          cleanup
  %74 = extractvalue { ptr, i32 } %73, 0
  store ptr %74, ptr %4, align 8
  %75 = extractvalue { ptr, i32 } %73, 1
  store i32 %75, ptr %5, align 4
  call void @_ZN4Json5ValueD1Ev(ptr noundef nonnull align 8 dereferenceable(40) %8) #3
  br label %104

76:                                               ; preds = %30
  %77 = landingpad { ptr, i32 }
          cleanup
  %78 = extractvalue { ptr, i32 } %77, 0
  store ptr %78, ptr %4, align 8
  %79 = extractvalue { ptr, i32 } %77, 1
  store i32 %79, ptr %5, align 4
  call void @_ZN4Json5ValueD1Ev(ptr noundef nonnull align 8 dereferenceable(40) %9) #3
  br label %104

80:                                               ; preds = %34
  %81 = landingpad { ptr, i32 }
          cleanup
  %82 = extractvalue { ptr, i32 } %81, 0
  store ptr %82, ptr %4, align 8
  %83 = extractvalue { ptr, i32 } %81, 1
  store i32 %83, ptr %5, align 4
  call void @_ZN4Json5ValueD1Ev(ptr noundef nonnull align 8 dereferenceable(40) %10) #3
  br label %104

84:                                               ; preds = %38
  %85 = landingpad { ptr, i32 }
          cleanup
  %86 = extractvalue { ptr, i32 } %85, 0
  store ptr %86, ptr %4, align 8
  %87 = extractvalue { ptr, i32 } %85, 1
  store i32 %87, ptr %5, align 4
  call void @_ZN4Json5ValueD1Ev(ptr noundef nonnull align 8 dereferenceable(40) %11) #3
  br label %104

88:                                               ; preds = %42
  %89 = landingpad { ptr, i32 }
          cleanup
  %90 = extractvalue { ptr, i32 } %89, 0
  store ptr %90, ptr %4, align 8
  %91 = extractvalue { ptr, i32 } %89, 1
  store i32 %91, ptr %5, align 4
  call void @_ZN4Json5ValueD1Ev(ptr noundef nonnull align 8 dereferenceable(40) %12) #3
  br label %104

92:                                               ; preds = %46
  %93 = landingpad { ptr, i32 }
          cleanup
  %94 = extractvalue { ptr, i32 } %93, 0
  store ptr %94, ptr %4, align 8
  %95 = extractvalue { ptr, i32 } %93, 1
  store i32 %95, ptr %5, align 4
  call void @_ZN4Json5ValueD1Ev(ptr noundef nonnull align 8 dereferenceable(40) %13) #3
  br label %104

96:                                               ; preds = %50
  %97 = landingpad { ptr, i32 }
          cleanup
  %98 = extractvalue { ptr, i32 } %97, 0
  store ptr %98, ptr %4, align 8
  %99 = extractvalue { ptr, i32 } %97, 1
  store i32 %99, ptr %5, align 4
  call void @_ZN4Json5ValueD1Ev(ptr noundef nonnull align 8 dereferenceable(40) %14) #3
  br label %104

100:                                              ; preds = %54
  %101 = landingpad { ptr, i32 }
          cleanup
  %102 = extractvalue { ptr, i32 } %101, 0
  store ptr %102, ptr %4, align 8
  %103 = extractvalue { ptr, i32 } %101, 1
  store i32 %103, ptr %5, align 4
  call void @_ZN4Json5ValueD1Ev(ptr noundef nonnull align 8 dereferenceable(40) %15) #3
  br label %104

104:                                              ; preds = %100, %96, %92, %88, %84, %80, %76, %72, %68, %64, %60
  %105 = load ptr, ptr %4, align 8
  %106 = load i32, ptr %5, align 4
  %107 = insertvalue { ptr, i32 } poison, ptr %105, 0
  %108 = insertvalue { ptr, i32 } %107, i32 %106, 1
  resume { ptr, i32 } %108
}