; Function Attrs: mustprogress uwtable
define dso_local void @_ZN4Json17CharReaderBuilder10strictModeEPNS_5ValueE(ptr noundef %0) local_unnamed_addr #6 align 2 personality ptr @__gxx_personality_v0 {
  %2 = alloca %"class.Json::Value", align 8
  %3 = alloca %"class.Json::Value", align 8
  %4 = alloca %"class.Json::Value", align 8
  %5 = alloca %"class.Json::Value", align 8
  %6 = alloca %"class.Json::Value", align 8
  %7 = alloca %"class.Json::Value", align 8
  %8 = alloca %"class.Json::Value", align 8
  %9 = alloca %"class.Json::Value", align 8
  %10 = alloca %"class.Json::Value", align 8
  %11 = alloca %"class.Json::Value", align 8
  %12 = alloca %"class.Json::Value", align 8
  call void @_ZN4Json5ValueC1Eb(ptr noundef nonnull align 8 dereferenceable(40) %2, i1 noundef zeroext false)
  %13 = invoke noundef nonnull align 8 dereferenceable(40) ptr @_ZN4Json5ValueixEPKc(ptr noundef nonnull align 8 dereferenceable(40) %0, ptr noundef nonnull @.str.31)
          to label %14 unwind label %46

14:                                               ; preds = %1
  %15 = call noundef nonnull align 8 dereferenceable(40) ptr @_ZN4Json5ValueaSEOS0_(ptr noundef nonnull align 8 dereferenceable(40) %13, ptr noundef nonnull align 8 dereferenceable(40) %2) #25
  call void @_ZN4Json5ValueD1Ev(ptr noundef nonnull align 8 dereferenceable(40) %2) #25
  call void @_ZN4Json5ValueC1Eb(ptr noundef nonnull align 8 dereferenceable(40) %3, i1 noundef zeroext false)
  %16 = invoke noundef nonnull align 8 dereferenceable(40) ptr @_ZN4Json5ValueixEPKc(ptr noundef nonnull align 8 dereferenceable(40) %0, ptr noundef nonnull @.str.32)
          to label %17 unwind label %48

17:                                               ; preds = %14
  %18 = call noundef nonnull align 8 dereferenceable(40) ptr @_ZN4Json5ValueaSEOS0_(ptr noundef nonnull align 8 dereferenceable(40) %16, ptr noundef nonnull align 8 dereferenceable(40) %3) #25
  call void @_ZN4Json5ValueD1Ev(ptr noundef nonnull align 8 dereferenceable(40) %3) #25
  call void @_ZN4Json5ValueC1Eb(ptr noundef nonnull align 8 dereferenceable(40) %4, i1 noundef zeroext true)
  %19 = invoke noundef nonnull align 8 dereferenceable(40) ptr @_ZN4Json5ValueixEPKc(ptr noundef nonnull align 8 dereferenceable(40) %0, ptr noundef nonnull @.str.33)
          to label %20 unwind label %50

20:                                               ; preds = %17
  %21 = call noundef nonnull align 8 dereferenceable(40) ptr @_ZN4Json5ValueaSEOS0_(ptr noundef nonnull align 8 dereferenceable(40) %19, ptr noundef nonnull align 8 dereferenceable(40) %4) #25
  call void @_ZN4Json5ValueD1Ev(ptr noundef nonnull align 8 dereferenceable(40) %4) #25
  call void @_ZN4Json5ValueC1Eb(ptr noundef nonnull align 8 dereferenceable(40) %5, i1 noundef zeroext false)
  %22 = invoke noundef nonnull align 8 dereferenceable(40) ptr @_ZN4Json5ValueixEPKc(ptr noundef nonnull align 8 dereferenceable(40) %0, ptr noundef nonnull @.str.34)
          to label %23 unwind label %52

23:                                               ; preds = %20
  %24 = call noundef nonnull align 8 dereferenceable(40) ptr @_ZN4Json5ValueaSEOS0_(ptr noundef nonnull align 8 dereferenceable(40) %22, ptr noundef nonnull align 8 dereferenceable(40) %5) #25
  call void @_ZN4Json5ValueD1Ev(ptr noundef nonnull align 8 dereferenceable(40) %5) #25
  call void @_ZN4Json5ValueC1Eb(ptr noundef nonnull align 8 dereferenceable(40) %6, i1 noundef zeroext false)
  %25 = invoke noundef nonnull align 8 dereferenceable(40) ptr @_ZN4Json5ValueixEPKc(ptr noundef nonnull align 8 dereferenceable(40) %0, ptr noundef nonnull @.str.35)
          to label %26 unwind label %54

26:                                               ; preds = %23
  %27 = call noundef nonnull align 8 dereferenceable(40) ptr @_ZN4Json5ValueaSEOS0_(ptr noundef nonnull align 8 dereferenceable(40) %25, ptr noundef nonnull align 8 dereferenceable(40) %6) #25
  call void @_ZN4Json5ValueD1Ev(ptr noundef nonnull align 8 dereferenceable(40) %6) #25
  call void @_ZN4Json5ValueC1Eb(ptr noundef nonnull align 8 dereferenceable(40) %7, i1 noundef zeroext false)
  %28 = invoke noundef nonnull align 8 dereferenceable(40) ptr @_ZN4Json5ValueixEPKc(ptr noundef nonnull align 8 dereferenceable(40) %0, ptr noundef nonnull @.str.36)
          to label %29 unwind label %56

29:                                               ; preds = %26
  %30 = call noundef nonnull align 8 dereferenceable(40) ptr @_ZN4Json5ValueaSEOS0_(ptr noundef nonnull align 8 dereferenceable(40) %28, ptr noundef nonnull align 8 dereferenceable(40) %7) #25
  call void @_ZN4Json5ValueD1Ev(ptr noundef nonnull align 8 dereferenceable(40) %7) #25
  call void @_ZN4Json5ValueC1Ei(ptr noundef nonnull align 8 dereferenceable(40) %8, i32 noundef 1000)
  %31 = invoke noundef nonnull align 8 dereferenceable(40) ptr @_ZN4Json5ValueixEPKc(ptr noundef nonnull align 8 dereferenceable(40) %0, ptr noundef nonnull @.str.37)
          to label %32 unwind label %58

32:                                               ; preds = %29
  %33 = call noundef nonnull align 8 dereferenceable(40) ptr @_ZN4Json5ValueaSEOS0_(ptr noundef nonnull align 8 dereferenceable(40) %31, ptr noundef nonnull align 8 dereferenceable(40) %8) #25
  call void @_ZN4Json5ValueD1Ev(ptr noundef nonnull align 8 dereferenceable(40) %8) #25
  call void @_ZN4Json5ValueC1Eb(ptr noundef nonnull align 8 dereferenceable(40) %9, i1 noundef zeroext true)
  %34 = invoke noundef nonnull align 8 dereferenceable(40) ptr @_ZN4Json5ValueixEPKc(ptr noundef nonnull align 8 dereferenceable(40) %0, ptr noundef nonnull @.str.38)
          to label %35 unwind label %60

35:                                               ; preds = %32
  %36 = call noundef nonnull align 8 dereferenceable(40) ptr @_ZN4Json5ValueaSEOS0_(ptr noundef nonnull align 8 dereferenceable(40) %34, ptr noundef nonnull align 8 dereferenceable(40) %9) #25
  call void @_ZN4Json5ValueD1Ev(ptr noundef nonnull align 8 dereferenceable(40) %9) #25
  call void @_ZN4Json5ValueC1Eb(ptr noundef nonnull align 8 dereferenceable(40) %10, i1 noundef zeroext true)
  %37 = invoke noundef nonnull align 8 dereferenceable(40) ptr @_ZN4Json5ValueixEPKc(ptr noundef nonnull align 8 dereferenceable(40) %0, ptr noundef nonnull @.str.39)
          to label %38 unwind label %62

38:                                               ; preds = %35
  %39 = call noundef nonnull align 8 dereferenceable(40) ptr @_ZN4Json5ValueaSEOS0_(ptr noundef nonnull align 8 dereferenceable(40) %37, ptr noundef nonnull align 8 dereferenceable(40) %10) #25
  call void @_ZN4Json5ValueD1Ev(ptr noundef nonnull align 8 dereferenceable(40) %10) #25
  call void @_ZN4Json5ValueC1Eb(ptr noundef nonnull align 8 dereferenceable(40) %11, i1 noundef zeroext false)
  %40 = invoke noundef nonnull align 8 dereferenceable(40) ptr @_ZN4Json5ValueixEPKc(ptr noundef nonnull align 8 dereferenceable(40) %0, ptr noundef nonnull @.str.40)
          to label %41 unwind label %64

41:                                               ; preds = %38
  %42 = call noundef nonnull align 8 dereferenceable(40) ptr @_ZN4Json5ValueaSEOS0_(ptr noundef nonnull align 8 dereferenceable(40) %40, ptr noundef nonnull align 8 dereferenceable(40) %11) #25
  call void @_ZN4Json5ValueD1Ev(ptr noundef nonnull align 8 dereferenceable(40) %11) #25
  call void @_ZN4Json5ValueC1Eb(ptr noundef nonnull align 8 dereferenceable(40) %12, i1 noundef zeroext true)
  %43 = invoke noundef nonnull align 8 dereferenceable(40) ptr @_ZN4Json5ValueixEPKc(ptr noundef nonnull align 8 dereferenceable(40) %0, ptr noundef nonnull @.str.41)
          to label %44 unwind label %66

44:                                               ; preds = %41
  %45 = call noundef nonnull align 8 dereferenceable(40) ptr @_ZN4Json5ValueaSEOS0_(ptr noundef nonnull align 8 dereferenceable(40) %43, ptr noundef nonnull align 8 dereferenceable(40) %12) #25
  call void @_ZN4Json5ValueD1Ev(ptr noundef nonnull align 8 dereferenceable(40) %12) #25
  ret void

46:                                               ; preds = %1
  %47 = landingpad { ptr, i32 }
          cleanup
  br label %68

48:                                               ; preds = %14
  %49 = landingpad { ptr, i32 }
          cleanup
  br label %68

50:                                               ; preds = %17
  %51 = landingpad { ptr, i32 }
          cleanup
  br label %68

52:                                               ; preds = %20
  %53 = landingpad { ptr, i32 }
          cleanup
  br label %68

54:                                               ; preds = %23
  %55 = landingpad { ptr, i32 }
          cleanup
  br label %68

56:                                               ; preds = %26
  %57 = landingpad { ptr, i32 }
          cleanup
  br label %68

58:                                               ; preds = %29
  %59 = landingpad { ptr, i32 }
          cleanup
  br label %68

60:                                               ; preds = %32
  %61 = landingpad { ptr, i32 }
          cleanup
  br label %68

62:                                               ; preds = %35
  %63 = landingpad { ptr, i32 }
          cleanup
  br label %68

64:                                               ; preds = %38
  %65 = landingpad { ptr, i32 }
          cleanup
  br label %68

66:                                               ; preds = %41
  %67 = landingpad { ptr, i32 }
          cleanup
  br label %68

68:                                               ; preds = %66, %64, %62, %60, %58, %56, %54, %52, %50, %48, %46
  %.sink = phi ptr [ %12, %66 ], [ %11, %64 ], [ %10, %62 ], [ %9, %60 ], [ %8, %58 ], [ %7, %56 ], [ %6, %54 ], [ %5, %52 ], [ %4, %50 ], [ %3, %48 ], [ %2, %46 ]
  %.pn = phi { ptr, i32 } [ %67, %66 ], [ %65, %64 ], [ %63, %62 ], [ %61, %60 ], [ %59, %58 ], [ %57, %56 ], [ %55, %54 ], [ %53, %52 ], [ %51, %50 ], [ %49, %48 ], [ %47, %46 ]
  call void @_ZN4Json5ValueD1Ev(ptr noundef nonnull align 8 dereferenceable(40) %.sink) #25
  resume { ptr, i32 } %.pn
}